target datalayout = "e-m:e-p270:32:32-p271:32:32-p272:64:64-i64:64-i128:128-f80:128-n8:16:32:64-S128"
target triple = "x86_64-pc-linux-gnu"

@hf_nfapi_initial_lbt_sf = internal global i32 0, align 4
@hf_nfapi_laa_end_partial_sf_flag = internal global i32 0, align 4
@hf_nfapi_laa_end_partial_sf_configuration = internal global i32 0, align 4
@hf_nfapi_codebooksize_determination_r13 = internal global i32 0, align 4
@hf_nfapi_rel13_drms_table_flag = internal global i32 0, align 4

; Function Attrs: nounwind uwtable
define internal void @dissect_dl_config_request_dl_dci_pdu_rel13_value(ptr noundef %0, ptr noundef %1) #0 {
  %3 = alloca ptr, align 8
  %4 = alloca ptr, align 8
  store ptr %0, ptr %3, align 8
  store ptr %1, ptr %4, align 8
  %5 = load ptr, ptr %3, align 8
  %6 = load i32, ptr @hf_nfapi_laa_end_partial_sf_flag, align 4
  %7 = call ptr @ptvcursor_add(ptr noundef %5, i32 noundef %6, i32 noundef 1, i32 noundef 0)
  %8 = load ptr, ptr %3, align 8
  %9 = load i32, ptr @hf_nfapi_laa_end_partial_sf_configuration, align 4
  %10 = call ptr @ptvcursor_add(ptr noundef %8, i32 noundef %9, i32 noundef 1, i32 noundef 0)
  %11 = load ptr, ptr %3, align 8
  %12 = load i32, ptr @hf_nfapi_initial_lbt_sf, align 4
  %13 = call ptr @ptvcursor_add(ptr noundef %11, i32 noundef %12, i32 noundef 1, i32 noundef 0)
  %14 = load ptr, ptr %3, align 8
  %15 = load i32, ptr @hf_nfapi_codebooksize_determination_r13, align 4
  %16 = call ptr @ptvcursor_add(ptr noundef %14, i32 noundef %15, i32 noundef 1, i32 noundef 0)
  %17 = load ptr, ptr %3, align 8
  %18 = load i32, ptr @hf_nfapi_rel13_drms_table_flag, align 4
  %19 = call ptr @ptvcursor_add(ptr noundef %17, i32 noundef %18, i32 noundef 1, i32 noundef 0)
  ret void
}