; Function Attrs: nounwind uwtable
define internal void @dissect_dl_config_request_dl_dci_pdu_rel13_value(ptr noundef %0, ptr readnone captures(none) %1) #0 {
  %3 = load i32, ptr @hf_nfapi_laa_end_partial_sf_flag, align 4
  %4 = tail call ptr @ptvcursor_add(ptr noundef %0, i32 noundef %3, i32 noundef 1, i32 noundef 0) #7
  %5 = load i32, ptr @hf_nfapi_laa_end_partial_sf_configuration, align 4
  %6 = tail call ptr @ptvcursor_add(ptr noundef %0, i32 noundef %5, i32 noundef 1, i32 noundef 0) #7
  %7 = load i32, ptr @hf_nfapi_initial_lbt_sf, align 4
  %8 = tail call ptr @ptvcursor_add(ptr noundef %0, i32 noundef %7, i32 noundef 1, i32 noundef 0) #7
  %9 = load i32, ptr @hf_nfapi_codebooksize_determination_r13, align 4
  %10 = tail call ptr @ptvcursor_add(ptr noundef %0, i32 noundef %9, i32 noundef 1, i32 noundef 0) #7
  %11 = load i32, ptr @hf_nfapi_rel13_drms_table_flag, align 4
  %12 = tail call ptr @ptvcursor_add(ptr noundef %0, i32 noundef %11, i32 noundef 1, i32 noundef 0) #7
  ret void
}